; Function Attrs: mustprogress nofree norecurse nosync nounwind willreturn memory(argmem: readwrite) uwtable
define noundef i64 @_Z15fast_rv64i_xoriP11processor_t6insn_tm(ptr nocapture noundef %0, i64 %1, i64 noundef %2) local_unnamed_addr #3 {
  %4 = lshr i64 %1, 7
  %5 = and i64 %4, 31
  %.not.i = icmp eq i64 %5, 0
  br i1 %.not.i, label %_ZN9regfile_tImLm32ELb1EE5writeEmm.exit, label %6

6:                                                ; preds = %3
  %7 = shl i64 %1, 32
  %8 = ashr i64 %7, 52
  %9 = getelementptr inbounds i8, ptr %0, i64 120
  %10 = lshr i64 %1, 15
  %11 = and i64 %10, 31
  %12 = getelementptr inbounds [32 x i64], ptr %9, i64 0, i64 %11
  %13 = load i64, ptr %12, align 8
  %14 = xor i64 %13, %8
  %15 = getelementptr inbounds [32 x i64], ptr %9, i64 0, i64 %5
  store i64 %14, ptr %15, align 8
  br label %_ZN9regfile_tImLm32ELb1EE5writeEmm.exit

_ZN9regfile_tImLm32ELb1EE5writeEmm.exit:          ; preds = %3, %6
  %16 = add i64 %2, 4
  ret i64 %16
}